; Function Attrs: mustprogress nounwind uwtable
define dso_local noundef zeroext i1 @_ZNK31cmGeneratorExpressionDAGChecker23EvaluatingPICExpressionEv(ptr noundef nonnull align 8 dereferenceable(126) %0) local_unnamed_addr #4 align 2 {
  br label %2

2:                                                ; preds = %2, %1
  %.05.i = phi ptr [ %0, %1 ], [ %.0.i, %2 ]
  %.0.i = load ptr, ptr %.05.i, align 8
  %.not.i = icmp eq ptr %.0.i, null
  br i1 %.not.i, label %_ZNK31cmGeneratorExpressionDAGChecker3TopEv.exit, label %2, !llvm.loop !5

_ZNK31cmGeneratorExpressionDAGChecker3TopEv.exit: ; preds = %2
  %3 = getelementptr inbounds nuw i8, ptr %.05.i, i64 16
  %4 = tail call noundef i32 @_ZNKSt7__cxx1112basic_stringIcSt11char_traitsIcESaIcEE7compareEPKc(ptr noundef nonnull align 8 dereferenceable(32) %3, ptr noundef nonnull @.str.10) #19
  %5 = icmp eq i32 %4, 0
  ret i1 %5
}